target datalayout = "e-m:e-p270:32:32-p271:32:32-p272:64:64-i64:64-i128:128-f80:128-n8:16:32:64-S128"
target triple = "x86_64-pc-linux-gnu"

; Function Attrs: nounwind uwtable
define i32 @dectolong(ptr noundef %0, ptr noundef %1) #0 {
  %3 = alloca i32, align 4
  %4 = alloca ptr, align 8
  %5 = alloca ptr, align 8
  %6 = alloca i32, align 4
  %7 = alloca ptr, align 8
  %8 = alloca i32, align 4
  %9 = alloca i32, align 4
  store ptr %0, ptr %4, align 8
  store ptr %1, ptr %5, align 8
  call void @llvm.lifetime.start.p0(i64 4, ptr %6) #9
  call void @llvm.lifetime.start.p0(i64 8, ptr %7) #9
  %10 = call ptr @PGTYPESnumeric_new()
  store ptr %10, ptr %7, align 8
  call void @llvm.lifetime.start.p0(i64 4, ptr %8) #9
  %11 = load ptr, ptr %7, align 8
  %12 = icmp eq ptr %11, null
  br i1 %12, label %13, label %14

13:                                               ; preds = %2
  store i32 -1211, ptr %3, align 4
  store i32 1, ptr %9, align 4
  br label %37

14:                                               ; preds = %2
  %15 = load ptr, ptr %4, align 8
  %16 = load ptr, ptr %7, align 8
  %17 = call i32 @PGTYPESnumeric_from_decimal(ptr noundef %15, ptr noundef %16)
  %18 = icmp ne i32 %17, 0
  br i1 %18, label %19, label %21

19:                                               ; preds = %14
  %20 = load ptr, ptr %7, align 8
  call void @PGTYPESnumeric_free(ptr noundef %20)
  store i32 -1211, ptr %3, align 4
  store i32 1, ptr %9, align 4
  br label %37

21:                                               ; preds = %14
  %22 = call ptr @__errno_location() #8
  store i32 0, ptr %22, align 4
  %23 = load ptr, ptr %7, align 8
  %24 = load ptr, ptr %5, align 8
  %25 = call i32 @PGTYPESnumeric_to_long(ptr noundef %23, ptr noundef %24)
  store i32 %25, ptr %6, align 4
  %26 = call ptr @__errno_location() #8
  %27 = load i32, ptr %26, align 4
  store i32 %27, ptr %8, align 4
  %28 = load ptr, ptr %7, align 8
  call void @PGTYPESnumeric_free(ptr noundef %28)
  %29 = load i32, ptr %6, align 4
  %30 = icmp eq i32 %29, -1
  br i1 %30, label %31, label %35

31:                                               ; preds = %21
  %32 = load i32, ptr %8, align 4
  %33 = icmp eq i32 %32, 301
  br i1 %33, label %34, label %35

34:                                               ; preds = %31
  store i32 -1200, ptr %6, align 4
  br label %35

35:                                               ; preds = %34, %31, %21
  %36 = load i32, ptr %6, align 4
  store i32 %36, ptr %3, align 4
  store i32 1, ptr %9, align 4
  br label %37

37:                                               ; preds = %35, %19, %13
  call void @llvm.lifetime.end.p0(i64 4, ptr %8) #9
  call void @llvm.lifetime.end.p0(i64 8, ptr %7) #9
  call void @llvm.lifetime.end.p0(i64 4, ptr %6) #9
  %38 = load i32, ptr %3, align 4
  ret i32 %38
}