; Function Attrs: nounwind uwtable
define i32 @dectolong(ptr noundef %0, ptr noundef %1) local_unnamed_addr #0 {
  %3 = tail call ptr @PGTYPESnumeric_new() #16
  %4 = icmp eq ptr %3, null
  br i1 %4, label %14, label %5

5:                                                ; preds = %2
  %6 = tail call i32 @PGTYPESnumeric_from_decimal(ptr noundef %0, ptr noundef nonnull %3) #16
  %.not = icmp eq i32 %6, 0
  br i1 %.not, label %8, label %7

7:                                                ; preds = %5
  tail call void @PGTYPESnumeric_free(ptr noundef nonnull %3) #16
  br label %14

8:                                                ; preds = %5
  %9 = tail call ptr @__errno_location() #15
  store i32 0, ptr %9, align 4
  %10 = tail call i32 @PGTYPESnumeric_to_long(ptr noundef nonnull %3, ptr noundef %1) #16
  %11 = load i32, ptr %9, align 4
  tail call void @PGTYPESnumeric_free(ptr noundef nonnull %3) #16
  %12 = icmp eq i32 %10, -1
  %13 = icmp eq i32 %11, 301
  %or.cond = select i1 %12, i1 %13, i1 false
  %spec.store.select = select i1 %or.cond, i32 -1200, i32 %10
  br label %14

14:                                               ; preds = %2, %8, %7
  %.0 = phi i32 [ -1211, %7 ], [ %spec.store.select, %8 ], [ -1211, %2 ]
  ret i32 %.0
}